; Function Attrs: mustprogress uwtable
define void @_ZN3gmx25AbstractAnalysisArrayData14allocateValuesEv(ptr noundef nonnull align 8 dereferenceable(94) %0) local_unnamed_addr #1 align 2 {
  %2 = getelementptr inbounds i8, ptr %0, i64 40
  %3 = load ptr, ptr %2, align 8
  %4 = getelementptr inbounds i8, ptr %0, i64 48
  %5 = load ptr, ptr %4, align 8
  %.not = icmp eq ptr %3, %5
  br i1 %.not, label %7, label %6

6:                                                ; preds = %1
  tail call void @_ZN3gmx8internal13assertHandlerEPKcS2_S2_S2_i(ptr noundef nonnull @.str.1, ptr noundef nonnull @.str.10, ptr noundef nonnull @"__PRETTY_FUNCTION__._ZZN3gmx25AbstractAnalysisArrayData14allocateValuesEvENK3$_0clEv", ptr noundef nonnull @.str.3, i32 noundef 110) #16
  unreachable

7:                                                ; preds = %1
  %8 = getelementptr inbounds i8, ptr %0, i64 16
  %9 = load i32, ptr %8, align 8
  %10 = icmp sgt i32 %9, 0
  br i1 %10, label %11, label %14

11:                                               ; preds = %7
  %12 = tail call noundef i32 @_ZNK3gmx20AbstractAnalysisData11columnCountEv(ptr noundef nonnull align 8 dereferenceable(16) %0)
  %13 = icmp sgt i32 %12, 0
  br i1 %13, label %15, label %14

14:                                               ; preds = %11, %7
  tail call void @_ZN3gmx8internal13assertHandlerEPKcS2_S2_S2_i(ptr noundef nonnull @.str.11, ptr noundef nonnull @.str.12, ptr noundef nonnull @"__PRETTY_FUNCTION__._ZZN3gmx25AbstractAnalysisArrayData14allocateValuesEvENK3$_0clEv", ptr noundef nonnull @.str.3, i32 noundef 112) #16
  unreachable

15:                                               ; preds = %11
  %16 = load i32, ptr %8, align 8
  %17 = tail call noundef i32 @_ZNK3gmx20AbstractAnalysisData11columnCountEv(ptr noundef nonnull align 8 dereferenceable(16) %0)
  %18 = mul nsw i32 %17, %16
  %19 = sext i32 %18 to i64
  tail call void @_ZNSt6vectorIN3gmx17AnalysisDataValueESaIS1_EE6resizeEm(ptr noundef nonnull align 8 dereferenceable(24) %2, i64 noundef %19)
  %20 = load ptr, ptr %2, align 8
  %21 = load ptr, ptr %4, align 8
  %.not45 = icmp eq ptr %20, %21
  br i1 %.not45, label %._crit_edge, label %.lr.ph

.lr.ph:                                           ; preds = %15, %.lr.ph
  %.sroa.01.06 = phi ptr [ %25, %.lr.ph ], [ %20, %15 ]
  store float 0.000000e+00, ptr %.sroa.01.06, align 8
  %22 = getelementptr inbounds i8, ptr %.sroa.01.06, i64 8
  %23 = load i64, ptr %22, align 8
  %24 = or i64 %23, 5
  store i64 %24, ptr %22, align 8
  %25 = getelementptr inbounds i8, ptr %.sroa.01.06, i64 16
  %26 = load ptr, ptr %4, align 8
  %.not4 = icmp eq ptr %25, %26
  br i1 %.not4, label %._crit_edge, label %.lr.ph, !llvm.loop !7

._crit_edge:                                      ; preds = %.lr.ph, %15
  ret void
}